; Function Attrs: mustprogress nounwind uwtable
define hidden void @_ZN12G1BarrierSet25write_ref_field_post_slowEPVh(ptr nocapture noundef nonnull readnone align 8 dereferenceable(2592) %0, ptr noundef %1) local_unnamed_addr #0 align 2 {
  tail call void asm sideeffect "lock; addl $$0,0(%rsp)", "~{cc},~{memory},~{dirflag},~{fpsr},~{flags}"() #9, !srcloc !9
  tail call void asm sideeffect "", "~{memory},~{dirflag},~{fpsr},~{flags}"() #9, !srcloc !10
  %3 = load volatile i8, ptr %1, align 1
  %.not = icmp eq i8 %3, 0
  br i1 %.not, label %10, label %4

4:                                                ; preds = %2
  store volatile i8 0, ptr %1, align 1
  %5 = tail call align 8 ptr @llvm.threadlocal.address.p0(ptr align 8 @_ZN6Thread12_thr_currentE)
  %6 = load ptr, ptr %5, align 8
  %7 = getelementptr inbounds i8, ptr %6, i64 64
  %8 = load ptr, ptr @_ZN10BarrierSet12_barrier_setE, align 8
  %9 = getelementptr inbounds i8, ptr %8, i64 1664
  tail call void @_ZN19G1DirtyCardQueueSet7enqueueER16G1DirtyCardQueuePVh(ptr noundef nonnull align 8 dereferenceable(928) %9, ptr noundef nonnull align 8 dereferenceable(24) %7, ptr noundef nonnull %1) #9
  br label %10

10:                                               ; preds = %4, %2
  ret void
}